(dp0
S'Southwark'
p1
(lp2
S'Newington'
p3
aS'Walworth'
p4
aS'Dulwich'
p5
aS'Denmark Hill'
p6
aS'East Dulwich'
p7
aS'Nunhead'
p8
aS'Rotherhithe'
p9
aS'Elephant and Castle'
p10
aS'Peckham'
p11
aS'Surrey Quays'
p12
aS'Bermondsey'
p13
aS'Camberwell'
p14
aS'Bankside'
p15
asS'Redbridge'
p16
(lp17
S'Ilford'
p18
aS'Wanstead'
p19
aS'Seven Kings'
p20
aS'Chadwell Heath'
p21
aS'Woodford'
p22
aS'Redbridge'
p23
aS'Gants Hill'
p24
aS'Woodford Green'
p25
aS'Aldborough Hatch'
p26
aS'Goodmayes'
p27
aS'Snaresbrook'
p28
aS'Newbury Park'
p29
aS'South Woodford'
p30
aS'Barkingside'
p31
aS'Loxford'
p32
aS'Hainault'
p33
asS'Outer London'
p34
(lp35
S'Brent Park'
p36
aS'Church End'
p37
aS'Dollis Hill'
p38
aS'Harlesden'
p39
aS'Kensal Green'
p40
aS'Kingsbury'
p41
aS'Neasden'
p42
aS'Preston'
p43
aS"Queen's Park"
p44
aS'Tokyngton'
p45
aS'Wembley'
p46
aS'Wembley Park'
p47
aS'Willesden'
p48
aS'Park Royal'
p49
aS'Kenton'
p50
aS'Kilburn'
p51
aS'Sudbury'
p52
aS'Brondesbury'
p53
aS'Alperton'
p54
ag18
ag19
ag20
ag21
ag22
ag23
ag24
ag25
ag26
ag27
ag28
ag29
ag30
ag31
ag32
ag33
asS'Inner London'
p55
(lp56
S'Chalk Farm'
p57
aS'Kentish Town'
p58
aS'Primrose Hill'
p59
aS'Highgate'
p60
aS'Fitzrovia'
p61
aS'Gospel Oak'
p62
aS'Bloomsbury'
p63
aS'Swiss Cottage'
p64
aS'St Pancras'
p65
aS'West Hampstead'
p66
aS'Belsize Park'
p67
aS'Holborn'
p68
aS'Camden Town'
p69
aS'Dartmouth Park'
p70
aS"King's Cross"
p71
aS'Frognal'
p72
aS'St Giles'
p73
aS'Somerstown'
p74
aS'Hampstead'
p75
ag3
ag4
ag5
ag6
ag7
ag8
ag9
ag10
ag11
ag12
ag13
ag14
ag15
asS'Camden'
p76
(lp77
g57
ag58
ag59
ag60
ag61
ag62
ag63
ag64
ag65
ag66
ag67
ag68
ag69
ag70
ag71
ag72
ag73
ag74
ag75
asS'Brent'
p78
(lp79
g36
ag37
ag38
ag39
ag40
ag41
ag42
ag43
ag44
ag45
ag46
ag47
ag48
ag49
ag50
ag51
ag52
ag53
ag54
as.